target datalayout = "e-m:e-p270:32:32-p271:32:32-p272:64:64-i64:64-i128:128-f80:128-n8:16:32:64-S128"
target triple = "x86_64-pc-linux-gnu"

%"struct.clang::ento::PathDiagnosticConsumerOptions" = type <{ %"class.std::__cxx11::basic_string", i8, i8, i8, i8, i8, i8, [2 x i8] }>
%"class.std::__cxx11::basic_string" = type { %"struct.std::__cxx11::basic_string<char>::_Alloc_hider", i64, %union.anon }
%"struct.std::__cxx11::basic_string<char>::_Alloc_hider" = type { ptr }
%union.anon = type { i64, [8 x i8] }
%"class.(anonymous namespace)::PlistDiagnostics" = type <{ %"class.clang::ento::PathDiagnosticConsumer", %"struct.clang::ento::PathDiagnosticConsumerOptions", %"class.std::__cxx11::basic_string", ptr, ptr, ptr, i8, [7 x i8] }>
%"class.clang::ento::PathDiagnosticConsumer" = type { ptr, i8, %"class.llvm::FoldingSet" }
%"class.llvm::FoldingSet" = type { %"class.llvm::FoldingSetImpl" }
%"class.llvm::FoldingSetImpl" = type { %"class.llvm::FoldingSetBase" }
%"class.llvm::FoldingSetBase" = type { ptr, i32, i32 }

; Function Attrs: mustprogress nounwind uwtable
define linkonce_odr hidden void @_ZN5clang4ento29PathDiagnosticConsumerOptionsD2Ev(ptr noundef nonnull align 8 dereferenceable(38) %0) unnamed_addr #0 comdat align 2 {
  %2 = alloca ptr, align 8
  store ptr %0, ptr %2, align 8
  %3 = load ptr, ptr %2, align 8
  %4 = getelementptr inbounds nuw %"struct.clang::ento::PathDiagnosticConsumerOptions", ptr %3, i32 0, i32 0
  call void @_ZNSt7__cxx1112basic_stringIcSt11char_traitsIcESaIcEED1Ev(ptr noundef nonnull align 8 dereferenceable(32) %4) #12
  ret void
}

; Function Attrs: mustprogress nounwind uwtable
define internal void @_ZN12_GLOBAL__N_116PlistDiagnosticsD2Ev(ptr noundef nonnull align 8 dereferenceable(129) %0) unnamed_addr #0 align 2 {
  %2 = alloca ptr, align 8
  store ptr %0, ptr %2, align 8
  %3 = load ptr, ptr %2, align 8
  store ptr getelementptr inbounds inrange(-16, 64) ({ [10 x ptr] }, ptr @_ZTVN12_GLOBAL__N_116PlistDiagnosticsE, i32 0, i32 0, i32 2), ptr %3, align 8
  %4 = getelementptr inbounds nuw %"class.(anonymous namespace)::PlistDiagnostics", ptr %3, i32 0, i32 2
  call void @_ZNSt7__cxx1112basic_stringIcSt11char_traitsIcESaIcEED1Ev(ptr noundef nonnull align 8 dereferenceable(32) %4) #12
  %5 = getelementptr inbounds nuw %"class.(anonymous namespace)::PlistDiagnostics", ptr %3, i32 0, i32 1
  call void @_ZN5clang4ento29PathDiagnosticConsumerOptionsD2Ev(ptr noundef nonnull align 8 dereferenceable(38) %5) #12
  call void @_ZN5clang4ento22PathDiagnosticConsumerD2Ev(ptr noundef nonnull align 8 dereferenceable(32) %3) #12
  ret void
}