; Function Attrs: mustprogress nounwind uwtable
define internal void @_ZN12_GLOBAL__N_116PlistDiagnosticsD2Ev(ptr noundef nonnull align 8 dereferenceable(129) %0) unnamed_addr #0 align 2 {
  store ptr getelementptr inbounds inrange(-16, 64) (i8, ptr @_ZTVN12_GLOBAL__N_116PlistDiagnosticsE, i64 16), ptr %0, align 8
  %2 = getelementptr inbounds nuw i8, ptr %0, i64 72
  tail call void @_ZNSt7__cxx1112basic_stringIcSt11char_traitsIcESaIcEED1Ev(ptr noundef nonnull align 8 dereferenceable(32) %2) #18
  %3 = getelementptr inbounds nuw i8, ptr %0, i64 32
  tail call void @_ZNSt7__cxx1112basic_stringIcSt11char_traitsIcESaIcEED1Ev(ptr noundef nonnull align 8 dereferenceable(32) %3) #18
  tail call void @_ZN5clang4ento22PathDiagnosticConsumerD2Ev(ptr noundef nonnull align 8 dereferenceable(32) %0) #18
  ret void
}